; Function Attrs: mustprogress uwtable
define noundef zeroext i1 @_ZNK32pxrInternal_v0_24__pxrReserved__16UsdSkelAnimQuery36ComputeJointLocalTransformComponentsEPNS_7VtArrayINS_7GfVec3fEEEPNS1_INS_7GfQuatfEEEPNS1_INS_7GfVec3hEEENS_11UsdTimeCodeE(ptr nocapture noundef nonnull readonly align 8 dereferenceable(8) %0, ptr noundef %1, ptr noundef %2, ptr noundef %3, double %4) local_unnamed_addr #0 align 2 {
  %6 = alloca %"class.pxrInternal_v0_24__pxrReserved__::TfCallContext", align 8
  %7 = alloca %"class.pxrInternal_v0_24__pxrReserved__::TfCallContext", align 8
  %8 = load ptr, ptr %0, align 8
  %.not.i.i.not = icmp eq ptr %8, null
  br i1 %.not.i.i.not, label %9, label %.critedge.thread

.critedge.thread:                                 ; preds = %5
  call void @llvm.lifetime.start.p0(i64 40, ptr nonnull %6)
  br label %_ZNK32pxrInternal_v0_24__pxrReserved__8TfRefPtrINS_21UsdSkel_AnimQueryImplEEptEv.exit

9:                                                ; preds = %5
  store ptr @.str, ptr %7, align 8
  %10 = getelementptr inbounds nuw i8, ptr %7, i64 8
  store ptr @__func__._ZNK32pxrInternal_v0_24__pxrReserved__16UsdSkelAnimQuery36ComputeJointLocalTransformComponentsEPNS_7VtArrayINS_7GfVec3fEEEPNS1_INS_7GfQuatfEEEPNS1_INS_7GfVec3hEEENS_11UsdTimeCodeE, ptr %10, align 8
  %11 = getelementptr inbounds nuw i8, ptr %7, i64 16
  store i64 58, ptr %11, align 8
  %12 = getelementptr inbounds nuw i8, ptr %7, i64 24
  store ptr @__PRETTY_FUNCTION__._ZNK32pxrInternal_v0_24__pxrReserved__16UsdSkelAnimQuery36ComputeJointLocalTransformComponentsEPNS_7VtArrayINS_7GfVec3fEEEPNS1_INS_7GfQuatfEEEPNS1_INS_7GfVec3hEEENS_11UsdTimeCodeE, ptr %12, align 8
  %13 = getelementptr inbounds nuw i8, ptr %7, i64 32
  store i8 0, ptr %13, align 8
  %14 = tail call noundef ptr (ptr, ...) @_ZN32pxrInternal_v0_24__pxrReserved__21Tf_VerifyStringFormatEPKcz(ptr noundef nonnull @.str.2)
  %15 = call noundef zeroext i1 @_ZN32pxrInternal_v0_24__pxrReserved__21Tf_FailedVerifyHelperERKNS_13TfCallContextEPKcS4_(ptr noundef nonnull align 8 dereferenceable(33) %7, ptr noundef nonnull @.str.1, ptr noundef %14)
  br i1 %15, label %.critedge, label %26

.critedge:                                        ; preds = %9
  %.pr = load ptr, ptr %0, align 8
  call void @llvm.lifetime.start.p0(i64 40, ptr nonnull %6)
  %.not.i = icmp eq ptr %.pr, null
  br i1 %.not.i, label %16, label %_ZNK32pxrInternal_v0_24__pxrReserved__8TfRefPtrINS_21UsdSkel_AnimQueryImplEEptEv.exit

16:                                               ; preds = %.critedge
  store ptr @.str.6, ptr %6, align 8
  %17 = getelementptr inbounds nuw i8, ptr %6, i64 8
  store ptr @__func__._ZNK32pxrInternal_v0_24__pxrReserved__8TfRefPtrINS_21UsdSkel_AnimQueryImplEEptEv, ptr %17, align 8
  %18 = getelementptr inbounds nuw i8, ptr %6, i64 16
  store i64 936, ptr %18, align 8
  %19 = getelementptr inbounds nuw i8, ptr %6, i64 24
  store ptr @__PRETTY_FUNCTION__._ZNK32pxrInternal_v0_24__pxrReserved__8TfRefPtrINS_21UsdSkel_AnimQueryImplEEptEv, ptr %19, align 8
  %20 = getelementptr inbounds nuw i8, ptr %6, i64 32
  store i8 0, ptr %20, align 8
  call void @_ZN32pxrInternal_v0_24__pxrReserved__40Tf_PostNullSmartPtrDereferenceFatalErrorERKNS_13TfCallContextEPKc(ptr noundef nonnull align 8 dereferenceable(33) %6, ptr noundef nonnull @_ZTSN32pxrInternal_v0_24__pxrReserved__8TfRefPtrINS_21UsdSkel_AnimQueryImplEEE) #11
  unreachable

_ZNK32pxrInternal_v0_24__pxrReserved__8TfRefPtrINS_21UsdSkel_AnimQueryImplEEptEv.exit: ; preds = %.critedge.thread, %.critedge
  %21 = phi ptr [ %8, %.critedge.thread ], [ %.pr, %.critedge ]
  call void @llvm.lifetime.end.p0(i64 40, ptr nonnull %6)
  %22 = load ptr, ptr %21, align 8
  %23 = getelementptr inbounds i8, ptr %22, i64 40
  %24 = load ptr, ptr %23, align 8
  %25 = call noundef zeroext i1 %24(ptr noundef nonnull align 8 dereferenceable(96) %21, ptr noundef %1, ptr noundef %2, ptr noundef %3, double %4)
  br label %26

26:                                               ; preds = %9, %_ZNK32pxrInternal_v0_24__pxrReserved__8TfRefPtrINS_21UsdSkel_AnimQueryImplEEptEv.exit
  %.0 = phi i1 [ %25, %_ZNK32pxrInternal_v0_24__pxrReserved__8TfRefPtrINS_21UsdSkel_AnimQueryImplEEptEv.exit ], [ false, %9 ]
  ret i1 %.0
}